target datalayout = "e-m:e-p270:32:32-p271:32:32-p272:64:64-i64:64-i128:128-f80:128-n8:16:32:64-S128"
target triple = "x86_64-pc-linux-gnu"

%struct.X509_name_st = type { ptr, i32, ptr, ptr, i32 }
%struct.X509_name_entry_st = type { ptr, ptr, i32, i32 }

; Function Attrs: nounwind uwtable
define hidden i32 @X509_NAME_get_index_by_OBJ(ptr noundef %0, ptr noundef %1, i32 noundef %2) #0 {
  %4 = alloca i32, align 4
  %5 = alloca ptr, align 8
  %6 = alloca ptr, align 8
  %7 = alloca i32, align 4
  %8 = alloca i32, align 4
  %9 = alloca ptr, align 8
  %10 = alloca ptr, align 8
  %11 = alloca i32, align 4
  store ptr %0, ptr %5, align 8, !tbaa !6
  store ptr %1, ptr %6, align 8, !tbaa !15
  store i32 %2, ptr %7, align 4, !tbaa !11
  call void @llvm.lifetime.start.p0(i64 4, ptr %8) #5
  call void @llvm.lifetime.start.p0(i64 8, ptr %9) #5
  call void @llvm.lifetime.start.p0(i64 8, ptr %10) #5
  %12 = load ptr, ptr %5, align 8, !tbaa !6
  %13 = icmp eq ptr %12, null
  br i1 %13, label %14, label %15

14:                                               ; preds = %3
  store i32 -1, ptr %4, align 4
  store i32 1, ptr %11, align 4
  br label %50

15:                                               ; preds = %3
  %16 = load i32, ptr %7, align 4, !tbaa !11
  %17 = icmp slt i32 %16, 0
  br i1 %17, label %18, label %19

18:                                               ; preds = %15
  store i32 -1, ptr %7, align 4, !tbaa !11
  br label %19

19:                                               ; preds = %18, %15
  %20 = load ptr, ptr %5, align 8, !tbaa !6
  %21 = getelementptr inbounds nuw %struct.X509_name_st, ptr %20, i32 0, i32 0
  %22 = load ptr, ptr %21, align 8, !tbaa !24
  store ptr %22, ptr %10, align 8, !tbaa !28
  %23 = load ptr, ptr %10, align 8, !tbaa !28
  %24 = call i64 @sk_num(ptr noundef %23)
  %25 = trunc i64 %24 to i32
  store i32 %25, ptr %8, align 4, !tbaa !11
  %26 = load i32, ptr %7, align 4, !tbaa !11
  %27 = add nsw i32 %26, 1
  store i32 %27, ptr %7, align 4, !tbaa !11
  br label %28

28:                                               ; preds = %46, %19
  %29 = load i32, ptr %7, align 4, !tbaa !11
  %30 = load i32, ptr %8, align 4, !tbaa !11
  %31 = icmp slt i32 %29, %30
  br i1 %31, label %32, label %49

32:                                               ; preds = %28
  %33 = load ptr, ptr %10, align 8, !tbaa !28
  %34 = load i32, ptr %7, align 4, !tbaa !11
  %35 = sext i32 %34 to i64
  %36 = call ptr @sk_value(ptr noundef %33, i64 noundef %35)
  store ptr %36, ptr %9, align 8, !tbaa !29
  %37 = load ptr, ptr %9, align 8, !tbaa !29
  %38 = getelementptr inbounds nuw %struct.X509_name_entry_st, ptr %37, i32 0, i32 0
  %39 = load ptr, ptr %38, align 8, !tbaa !31
  %40 = load ptr, ptr %6, align 8, !tbaa !15
  %41 = call i32 @OBJ_cmp(ptr noundef %39, ptr noundef %40)
  %42 = icmp eq i32 %41, 0
  br i1 %42, label %43, label %45

43:                                               ; preds = %32
  %44 = load i32, ptr %7, align 4, !tbaa !11
  store i32 %44, ptr %4, align 4
  store i32 1, ptr %11, align 4
  br label %50

45:                                               ; preds = %32
  br label %46

46:                                               ; preds = %45
  %47 = load i32, ptr %7, align 4, !tbaa !11
  %48 = add nsw i32 %47, 1
  store i32 %48, ptr %7, align 4, !tbaa !11
  br label %28, !llvm.loop !33

49:                                               ; preds = %28
  store i32 -1, ptr %4, align 4
  store i32 1, ptr %11, align 4
  br label %50

50:                                               ; preds = %49, %43, %14
  call void @llvm.lifetime.end.p0(i64 8, ptr %10) #5
  call void @llvm.lifetime.end.p0(i64 8, ptr %9) #5
  call void @llvm.lifetime.end.p0(i64 4, ptr %8) #5
  %51 = load i32, ptr %4, align 4
  ret i32 %51
}

; Function Attrs: nounwind uwtable
define hidden i32 @X509_NAME_get_index_by_NID(ptr noundef %0, i32 noundef %1, i32 noundef %2) #0 {
  %4 = alloca i32, align 4
  %5 = alloca ptr, align 8
  %6 = alloca i32, align 4
  %7 = alloca i32, align 4
  %8 = alloca ptr, align 8
  %9 = alloca i32, align 4
  store ptr %0, ptr %5, align 8, !tbaa !6
  store i32 %1, ptr %6, align 4, !tbaa !11
  store i32 %2, ptr %7, align 4, !tbaa !11
  call void @llvm.lifetime.start.p0(i64 8, ptr %8) #5
  %10 = load i32, ptr %6, align 4, !tbaa !11
  %11 = call ptr @OBJ_nid2obj(i32 noundef %10)
  store ptr %11, ptr %8, align 8, !tbaa !15
  %12 = load ptr, ptr %8, align 8, !tbaa !15
  %13 = icmp eq ptr %12, null
  br i1 %13, label %14, label %15

14:                                               ; preds = %3
  store i32 -2, ptr %4, align 4
  store i32 1, ptr %9, align 4
  br label %20

15:                                               ; preds = %3
  %16 = load ptr, ptr %5, align 8, !tbaa !6
  %17 = load ptr, ptr %8, align 8, !tbaa !15
  %18 = load i32, ptr %7, align 4, !tbaa !11
  %19 = call i32 @X509_NAME_get_index_by_OBJ(ptr noundef %16, ptr noundef %17, i32 noundef %18)
  store i32 %19, ptr %4, align 4
  store i32 1, ptr %9, align 4
  br label %20

20:                                               ; preds = %15, %14
  call void @llvm.lifetime.end.p0(i64 8, ptr %8) #5
  %21 = load i32, ptr %4, align 4
  ret i32 %21
}