; Function Attrs: nounwind uwtable
define hidden range(i32 -2147483647, -2147483648) i32 @X509_NAME_get_index_by_NID(ptr noundef readonly captures(address_is_null) %0, i32 noundef %1, i32 noundef %2) local_unnamed_addr #0 {
  %4 = tail call ptr @OBJ_nid2obj(i32 noundef %1) #7
  %5 = icmp eq ptr %4, null
  br i1 %5, label %X509_NAME_get_index_by_OBJ.exit, label %6

6:                                                ; preds = %3
  %7 = icmp eq ptr %0, null
  br i1 %7, label %X509_NAME_get_index_by_OBJ.exit, label %8

8:                                                ; preds = %6
  %9 = load ptr, ptr %0, align 8, !tbaa !6
  %10 = tail call i64 @sk_num(ptr noundef %9) #7
  %11 = tail call i32 @llvm.smax.i32(i32 %2, i32 -1)
  %smax.i = sext i32 %11 to i64
  %sext.i = shl i64 %10, 32
  %12 = ashr exact i64 %sext.i, 32
  br label %13

13:                                               ; preds = %15, %8
  %indvars.iv.i = phi i64 [ %indvars.iv.next.i, %15 ], [ %smax.i, %8 ]
  %indvars.iv.next.i = add nsw i64 %indvars.iv.i, 1
  %14 = icmp slt i64 %indvars.iv.next.i, %12
  br i1 %14, label %15, label %X509_NAME_get_index_by_OBJ.exit

15:                                               ; preds = %13
  %16 = tail call ptr @sk_value(ptr noundef %9, i64 noundef %indvars.iv.next.i) #7
  %17 = load ptr, ptr %16, align 8, !tbaa !15
  %18 = tail call i32 @OBJ_cmp(ptr noundef %17, ptr noundef nonnull %4) #7
  %19 = icmp eq i32 %18, 0
  br i1 %19, label %.loopexit.loopexit.split.loop.exit.i, label %13, !llvm.loop !19

.loopexit.loopexit.split.loop.exit.i:             ; preds = %15
  %20 = trunc nsw i64 %indvars.iv.next.i to i32
  br label %X509_NAME_get_index_by_OBJ.exit

X509_NAME_get_index_by_OBJ.exit:                  ; preds = %13, %.loopexit.loopexit.split.loop.exit.i, %6, %3
  %.0 = phi i32 [ -2, %3 ], [ -1, %6 ], [ %20, %.loopexit.loopexit.split.loop.exit.i ], [ -1, %13 ]
  ret i32 %.0
}